; Function Attrs: mustprogress uwtable
define void @ggml_backend_graph_plan_free(ptr noundef %0, ptr noundef %1) local_unnamed_addr #0 {
  %3 = getelementptr inbounds nuw i8, ptr %0, i64 64
  %4 = load ptr, ptr %3, align 8, !tbaa !68
  %.not = icmp eq ptr %4, null
  br i1 %.not, label %5, label %6

5:                                                ; preds = %2
  tail call void (ptr, i32, ptr, ...) @ggml_abort(ptr noundef nonnull @.str, i32 noundef 314, ptr noundef nonnull @.str.1, ptr noundef nonnull @.str.11) #24
  unreachable

6:                                                ; preds = %2
  tail call void %4(ptr noundef nonnull %0, ptr noundef %1)
  ret void
}